; Function Attrs: mustprogress uwtable
define void @_ZN6icu_7522TransliteratorRegistry11EnumerationC2ERKS0_(ptr noundef nonnull align 8 dereferenceable(136) %this, ptr noundef nonnull align 8 dereferenceable(312) %_reg) unnamed_addr #1 align 2 personality ptr @__gxx_personality_v0 {
entry:
  tail call void @_ZN6icu_7517StringEnumerationC2Ev(ptr noundef nonnull align 8 dereferenceable(116) %this)
  store ptr getelementptr inbounds ({ [13 x ptr] }, ptr @_ZTVN6icu_7522TransliteratorRegistry11EnumerationE, i64 0, i32 0, i64 2), ptr %this, align 8
  %pos = getelementptr inbounds i8, ptr %this, i64 116
  store i32 -1, ptr %pos, align 4
  %availableIDs = getelementptr inbounds i8, ptr %_reg, i64 224
  %0 = load ptr, ptr %availableIDs, align 8
  %call.i2 = invoke noundef i32 @uhash_count_75(ptr noundef %0)
          to label %invoke.cont unwind label %lpad

invoke.cont:                                      ; preds = %entry
  %size = getelementptr inbounds i8, ptr %this, i64 120
  store i32 %call.i2, ptr %size, align 8
  %reg = getelementptr inbounds i8, ptr %this, i64 128
  store ptr %_reg, ptr %reg, align 8
  ret void

lpad:                                             ; preds = %entry
  %1 = landingpad { ptr, i32 }
          cleanup
  tail call void @_ZN6icu_7517StringEnumerationD2Ev(ptr noundef nonnull align 8 dereferenceable(116) %this) #15
  resume { ptr, i32 } %1
}